target datalayout = "e-m:e-p270:32:32-p271:32:32-p272:64:64-i64:64-i128:128-f80:128-n8:16:32:64-S128"
target triple = "x86_64-pc-linux-gnu"

%struct.Vec_Int_t_ = type { i32, i32, ptr }
%struct.Bmc_AndPar_t_ = type { i32, i32, i32, i32, i32, i32, i32, i32, i32, i32, i32, i32, i32, i32, i32, i32, i32, i32, i32, ptr }
%struct.Bmcs_Man_t_ = type { ptr, ptr, ptr, ptr, %struct.Vec_Ptr_t_, %struct.Vec_Int_t_, %struct.Vec_Int_t_, [100 x ptr], i32, i32, i32, i64, i64, i64, i64 }
%struct.Vec_Ptr_t_ = type { i32, i32, ptr }
%struct.timespec = type { i64, i64 }

@.str.1 = private unnamed_addr constant [10 x i8] c"%4d %s : \00", align 1
@.str.2 = private unnamed_addr constant [2 x i8] c"-\00", align 1
@.str.3 = private unnamed_addr constant [2 x i8] c"+\00", align 1
@.str.4 = private unnamed_addr constant [14 x i8] c"Var =%8.0f.  \00", align 1
@.str.5 = private unnamed_addr constant [14 x i8] c"Cla =%9.0f.  \00", align 1
@.str.6 = private unnamed_addr constant [16 x i8] c"Learn =%9.0f.  \00", align 1
@.str.7 = private unnamed_addr constant [15 x i8] c"Conf =%9.0f.  \00", align 1
@.str.8 = private unnamed_addr constant [10 x i8] c"S = %3d. \00", align 1
@.str.9 = private unnamed_addr constant [9 x i8] c"%4.0f MB\00", align 1
@.str.10 = private unnamed_addr constant [12 x i8] c"%9.2f sec  \00", align 1
@.str.11 = private unnamed_addr constant [2 x i8] c"\0A\00", align 1
@stdout = external global ptr, align 8

; Function Attrs: nounwind uwtable
define internal i64 @Abc_Clock() #0 {
  %1 = alloca i64, align 8
  %2 = alloca %struct.timespec, align 8
  %3 = alloca i64, align 8
  %4 = call i32 @clock_gettime(i32 noundef 1, ptr noundef %2) #14
  %5 = icmp slt i32 %4, 0
  br i1 %5, label %6, label %7

6:                                                ; preds = %0
  store i64 -1, ptr %1, align 8
  br label %18

7:                                                ; preds = %0
  %8 = getelementptr inbounds %struct.timespec, ptr %2, i32 0, i32 0
  %9 = load i64, ptr %8, align 8
  %10 = mul nsw i64 %9, 1000000
  store i64 %10, ptr %3, align 8
  %11 = getelementptr inbounds %struct.timespec, ptr %2, i32 0, i32 1
  %12 = load i64, ptr %11, align 8
  %13 = mul nsw i64 %12, 1000000
  %14 = sdiv i64 %13, 1000000000
  %15 = load i64, ptr %3, align 8
  %16 = add nsw i64 %15, %14
  store i64 %16, ptr %3, align 8
  %17 = load i64, ptr %3, align 8
  store i64 %17, ptr %1, align 8
  br label %18

18:                                               ; preds = %7, %6
  %19 = load i64, ptr %1, align 8
  ret i64 %19
}

; Function Attrs: nounwind uwtable
define internal double @Vec_IntMemory(ptr noundef %0) #0 {
  %2 = alloca ptr, align 8
  store ptr %0, ptr %2, align 8
  %3 = load ptr, ptr %2, align 8
  %4 = icmp ne ptr %3, null
  br i1 %4, label %6, label %5

5:                                                ; preds = %1
  br label %13

6:                                                ; preds = %1
  %7 = load ptr, ptr %2, align 8
  %8 = getelementptr inbounds %struct.Vec_Int_t_, ptr %7, i32 0, i32 0
  %9 = load i32, ptr %8, align 8
  %10 = sext i32 %9 to i64
  %11 = uitofp i64 %10 to double
  %12 = call double @llvm.fmuladd.f64(double 4.000000e+00, double %11, double 1.600000e+01)
  br label %13

13:                                               ; preds = %6, %5
  %14 = phi double [ 0.000000e+00, %5 ], [ %12, %6 ]
  ret double %14
}

; Function Attrs: nounwind uwtable
define void @Bmcs_ManPrintFrame(ptr noundef %0, i32 noundef %1, i32 noundef %2, i32 noundef %3, i64 noundef %4) #0 {
  %6 = alloca ptr, align 8
  %7 = alloca i32, align 4
  %8 = alloca i32, align 4
  %9 = alloca i32, align 4
  %10 = alloca i64, align 8
  %11 = alloca i32, align 4
  store ptr %0, ptr %6, align 8
  store i32 %1, ptr %7, align 4
  store i32 %2, ptr %8, align 4
  store i32 %3, ptr %9, align 4
  store i64 %4, ptr %10, align 8
  store i32 0, ptr %11, align 4
  %12 = load ptr, ptr %6, align 8
  %13 = getelementptr inbounds %struct.Bmcs_Man_t_, ptr %12, i32 0, i32 0
  %14 = load ptr, ptr %13, align 8
  %15 = getelementptr inbounds %struct.Bmc_AndPar_t_, ptr %14, i32 0, i32 13
  %16 = load i32, ptr %15, align 4
  %17 = icmp ne i32 %16, 0
  br i1 %17, label %19, label %18

18:                                               ; preds = %5
  br label %78

19:                                               ; preds = %5
  %20 = load i32, ptr %7, align 4
  %21 = load i32, ptr %11, align 4
  %22 = icmp ne i32 %21, 0
  %23 = select i1 %22, ptr @.str.2, ptr @.str.3
  call void (i32, ptr, ...) @Abc_Print(i32 noundef 1, ptr noundef @.str.1, i32 noundef %20, ptr noundef %23)
  %24 = load ptr, ptr %6, align 8
  %25 = getelementptr inbounds %struct.Bmcs_Man_t_, ptr %24, i32 0, i32 7
  %26 = getelementptr inbounds [100 x ptr], ptr %25, i64 0, i64 0
  %27 = load ptr, ptr %26, align 8
  %28 = call i32 @satoko_varnum(ptr noundef %27)
  %29 = sitofp i32 %28 to double
  call void (i32, ptr, ...) @Abc_Print(i32 noundef 1, ptr noundef @.str.4, double noundef %29)
  %30 = load ptr, ptr %6, align 8
  %31 = getelementptr inbounds %struct.Bmcs_Man_t_, ptr %30, i32 0, i32 7
  %32 = getelementptr inbounds [100 x ptr], ptr %31, i64 0, i64 0
  %33 = load ptr, ptr %32, align 8
  %34 = call i32 @satoko_clausenum(ptr noundef %33)
  %35 = sitofp i32 %34 to double
  call void (i32, ptr, ...) @Abc_Print(i32 noundef 1, ptr noundef @.str.5, double noundef %35)
  %36 = load ptr, ptr %6, align 8
  %37 = getelementptr inbounds %struct.Bmcs_Man_t_, ptr %36, i32 0, i32 7
  %38 = getelementptr inbounds [100 x ptr], ptr %37, i64 0, i64 0
  %39 = load ptr, ptr %38, align 8
  %40 = call i32 @satoko_learntnum(ptr noundef %39)
  %41 = sitofp i32 %40 to double
  call void (i32, ptr, ...) @Abc_Print(i32 noundef 1, ptr noundef @.str.6, double noundef %41)
  %42 = load ptr, ptr %6, align 8
  %43 = getelementptr inbounds %struct.Bmcs_Man_t_, ptr %42, i32 0, i32 7
  %44 = getelementptr inbounds [100 x ptr], ptr %43, i64 0, i64 0
  %45 = load ptr, ptr %44, align 8
  %46 = call i32 @satoko_conflictnum(ptr noundef %45)
  %47 = sitofp i32 %46 to double
  call void (i32, ptr, ...) @Abc_Print(i32 noundef 1, ptr noundef @.str.7, double noundef %47)
  %48 = load ptr, ptr %6, align 8
  %49 = getelementptr inbounds %struct.Bmcs_Man_t_, ptr %48, i32 0, i32 0
  %50 = load ptr, ptr %49, align 8
  %51 = getelementptr inbounds %struct.Bmc_AndPar_t_, ptr %50, i32 0, i32 6
  %52 = load i32, ptr %51, align 8
  %53 = icmp sgt i32 %52, 1
  br i1 %53, label %54, label %56

54:                                               ; preds = %19
  %55 = load i32, ptr %9, align 4
  call void (i32, ptr, ...) @Abc_Print(i32 noundef 1, ptr noundef @.str.8, i32 noundef %55)
  br label %56

56:                                               ; preds = %54, %19
  %57 = load ptr, ptr %6, align 8
  %58 = getelementptr inbounds %struct.Bmcs_Man_t_, ptr %57, i32 0, i32 2
  %59 = load ptr, ptr %58, align 8
  %60 = call double @Gia_ManMemory(ptr noundef %59)
  %61 = fptosi double %60 to i32
  %62 = sitofp i32 %61 to double
  %63 = load ptr, ptr %6, align 8
  %64 = getelementptr inbounds %struct.Bmcs_Man_t_, ptr %63, i32 0, i32 5
  %65 = call double @Vec_IntMemory(ptr noundef %64)
  %66 = fadd double %62, %65
  %67 = fmul double 1.000000e+00, %66
  %68 = fdiv double %67, 0x4130000000000000
  call void (i32, ptr, ...) @Abc_Print(i32 noundef 1, ptr noundef @.str.9, double noundef %68)
  %69 = call i64 @Abc_Clock()
  %70 = load i64, ptr %10, align 8
  %71 = sub nsw i64 %69, %70
  %72 = sitofp i64 %71 to float
  %73 = fdiv float %72, 1.000000e+06
  %74 = fpext float %73 to double
  call void (i32, ptr, ...) @Abc_Print(i32 noundef 1, ptr noundef @.str.10, double noundef %74)
  %75 = call i32 (ptr, ...) @printf(ptr noundef @.str.11)
  %76 = load ptr, ptr @stdout, align 8
  %77 = call i32 @fflush(ptr noundef %76)
  br label %78

78:                                               ; preds = %56, %18
  ret void
}