; Function Attrs: nounwind uwtable
define void @Bmcs_ManPrintFrame(ptr noundef readonly captures(none) %0, i32 noundef %1, i32 %2, i32 noundef %3, i64 noundef %4) local_unnamed_addr #0 {
  %6 = alloca %struct.timespec, align 8
  %7 = load ptr, ptr %0, align 8
  %8 = getelementptr inbounds nuw i8, ptr %7, i64 52
  %9 = load i32, ptr %8, align 4
  %.not = icmp eq i32 %9, 0
  br i1 %.not, label %57, label %10

10:                                               ; preds = %5
  tail call void (i32, ptr, ...) @Abc_Print(i32 poison, ptr noundef nonnull @.str.1, i32 noundef %1, ptr noundef nonnull @.str.3)
  %11 = getelementptr inbounds nuw i8, ptr %0, i64 80
  %12 = load ptr, ptr %11, align 8
  %13 = tail call i32 @satoko_varnum(ptr noundef %12) #23
  %14 = sitofp i32 %13 to double
  tail call void (i32, ptr, ...) @Abc_Print(i32 poison, ptr noundef nonnull @.str.4, double noundef %14)
  %15 = load ptr, ptr %11, align 8
  %16 = tail call i32 @satoko_clausenum(ptr noundef %15) #23
  %17 = sitofp i32 %16 to double
  tail call void (i32, ptr, ...) @Abc_Print(i32 poison, ptr noundef nonnull @.str.5, double noundef %17)
  %18 = load ptr, ptr %11, align 8
  %19 = tail call i32 @satoko_learntnum(ptr noundef %18) #23
  %20 = sitofp i32 %19 to double
  tail call void (i32, ptr, ...) @Abc_Print(i32 poison, ptr noundef nonnull @.str.6, double noundef %20)
  %21 = load ptr, ptr %11, align 8
  %22 = tail call i32 @satoko_conflictnum(ptr noundef %21) #23
  %23 = sitofp i32 %22 to double
  tail call void (i32, ptr, ...) @Abc_Print(i32 poison, ptr noundef nonnull @.str.7, double noundef %23)
  %24 = load ptr, ptr %0, align 8
  %25 = getelementptr inbounds nuw i8, ptr %24, i64 24
  %26 = load i32, ptr %25, align 8
  %27 = icmp sgt i32 %26, 1
  br i1 %27, label %28, label %29

28:                                               ; preds = %10
  tail call void (i32, ptr, ...) @Abc_Print(i32 poison, ptr noundef nonnull @.str.8, i32 noundef %3)
  br label %29

29:                                               ; preds = %28, %10
  %30 = getelementptr inbounds nuw i8, ptr %0, i64 16
  %31 = load ptr, ptr %30, align 8
  %32 = tail call double @Gia_ManMemory(ptr noundef %31) #23
  %33 = fptosi double %32 to i32
  %34 = sitofp i32 %33 to double
  %35 = getelementptr inbounds nuw i8, ptr %0, i64 48
  %36 = load i32, ptr %35, align 8
  %37 = sext i32 %36 to i64
  %38 = uitofp i64 %37 to double
  %39 = tail call double @llvm.fmuladd.f64(double %38, double 4.000000e+00, double 1.600000e+01)
  %40 = fadd double %39, %34
  %41 = fmul double %40, 0x3EB0000000000000
  tail call void (i32, ptr, ...) @Abc_Print(i32 poison, ptr noundef nonnull @.str.9, double noundef %41)
  call void @llvm.lifetime.start.p0(i64 16, ptr nonnull %6)
  %42 = call i32 @clock_gettime(i32 noundef 1, ptr noundef nonnull %6) #23
  %43 = icmp slt i32 %42, 0
  br i1 %43, label %Abc_Clock.exit, label %44

44:                                               ; preds = %29
  %45 = load i64, ptr %6, align 8
  %46 = mul nsw i64 %45, 1000000
  %47 = getelementptr inbounds nuw i8, ptr %6, i64 8
  %48 = load i64, ptr %47, align 8
  %49 = sdiv i64 %48, 1000
  %50 = add nsw i64 %49, %46
  br label %Abc_Clock.exit

Abc_Clock.exit:                                   ; preds = %29, %44
  %.0.i = phi i64 [ %50, %44 ], [ -1, %29 ]
  call void @llvm.lifetime.end.p0(i64 16, ptr nonnull %6)
  %51 = sub nsw i64 %.0.i, %4
  %52 = sitofp i64 %51 to float
  %53 = fdiv float %52, 1.000000e+06
  %54 = fpext float %53 to double
  call void (i32, ptr, ...) @Abc_Print(i32 poison, ptr noundef nonnull @.str.10, double noundef %54)
  %putchar = call i32 @putchar(i32 10)
  %55 = load ptr, ptr @stdout, align 8
  %56 = call i32 @fflush(ptr noundef %55)
  br label %57

57:                                               ; preds = %5, %Abc_Clock.exit
  ret void
}